; Function Attrs: mustprogress nounwind uwtable
define dso_local void @_ZN5clang21TextDiagnosticPrinter15BeginSourceFileERKNS_11LangOptionsEPKNS_12PreprocessorE(ptr nocapture noundef nonnull align 8 dereferenceable(73) %0, ptr noundef nonnull align 8 dereferenceable(841) %1, ptr noundef %2) unnamed_addr #0 align 2 {
  %4 = getelementptr inbounds nuw i8, ptr %0, i64 32
  %5 = tail call noalias noundef nonnull dereferenceable(56) ptr @_Znwm(i64 noundef 56) #10
  %6 = getelementptr inbounds nuw i8, ptr %0, i64 16
  %7 = load ptr, ptr %6, align 8
  %8 = getelementptr inbounds nuw i8, ptr %0, i64 24
  %9 = load ptr, ptr %8, align 8
  tail call void @_ZN5clang14TextDiagnosticC1ERN4llvm11raw_ostreamERKNS_11LangOptionsEPNS_17DiagnosticOptionsEPKNS_12PreprocessorE(ptr noundef nonnull align 8 dereferenceable(56) %5, ptr noundef nonnull align 8 dereferenceable(48) %7, ptr noundef nonnull align 8 dereferenceable(841) %1, ptr noundef nonnull %9, ptr noundef %2) #8
  %10 = load ptr, ptr %4, align 8
  store ptr %5, ptr %4, align 8
  %.not.i.i = icmp eq ptr %10, null
  br i1 %.not.i.i, label %_ZNSt10unique_ptrIN5clang14TextDiagnosticESt14default_deleteIS1_EE5resetEPS1_.exit, label %_ZNKSt14default_deleteIN5clang14TextDiagnosticEEclEPS1_.exit.i.i

_ZNKSt14default_deleteIN5clang14TextDiagnosticEEclEPS1_.exit.i.i: ; preds = %3
  %11 = load ptr, ptr %10, align 8
  %12 = getelementptr inbounds i8, ptr %11, i64 8
  %13 = load ptr, ptr %12, align 8
  tail call void %13(ptr noundef nonnull align 8 dereferenceable(56) %10) #8
  br label %_ZNSt10unique_ptrIN5clang14TextDiagnosticESt14default_deleteIS1_EE5resetEPS1_.exit

_ZNSt10unique_ptrIN5clang14TextDiagnosticESt14default_deleteIS1_EE5resetEPS1_.exit: ; preds = %3, %_ZNKSt14default_deleteIN5clang14TextDiagnosticEEclEPS1_.exit.i.i
  ret void
}